; Function Attrs: mustprogress nofree nounwind memory(write, argmem: readwrite) uwtable
define noundef float @_Z16calc_similar_indbiPKiPKfPA3_fS4_(i1 noundef zeroext %0, i32 noundef %1, ptr noundef readonly %2, ptr nocapture noundef readonly %3, ptr nocapture noundef readonly %4, ptr nocapture noundef readonly %5) local_unnamed_addr #0 {
  %7 = icmp sgt i32 %1, 0
  br i1 %7, label %.lr.ph, label %._crit_edge

.lr.ph:                                           ; preds = %6
  %.not = icmp eq ptr %2, null
  %wide.trip.count114 = zext nneg i32 %1 to i64
  br i1 %0, label %.lr.ph.split.us, label %.lr.ph.split

.lr.ph.split.us:                                  ; preds = %.lr.ph
  br i1 %.not, label %.split.us.us.us, label %.split.us.us

.split.us.us.us:                                  ; preds = %.lr.ph.split.us, %.split49.us.us.us
  %indvars.iv111 = phi i64 [ %indvars.iv.next112, %.split49.us.us.us ], [ 0, %.lr.ph.split.us ]
  %.054.us.us = phi float [ %17, %.split49.us.us.us ], [ 0.000000e+00, %.lr.ph.split.us ]
  %.03753.us.us = phi float [ %20, %.split49.us.us.us ], [ 0.000000e+00, %.lr.ph.split.us ]
  %.04152.us.us = phi float [ %21, %.split49.us.us.us ], [ 0.000000e+00, %.lr.ph.split.us ]
  %8 = getelementptr inbounds float, ptr %3, i64 %indvars.iv111
  %9 = load float, ptr %8, align 4
  br label %10

10:                                               ; preds = %10, %.split.us.us.us
  %indvars.iv107 = phi i64 [ %indvars.iv.next108, %10 ], [ 0, %.split.us.us.us ]
  %.147.us.us.us = phi float [ %17, %10 ], [ %.054.us.us, %.split.us.us.us ]
  %.13846.us.us.us = phi float [ %20, %10 ], [ %.03753.us.us, %.split.us.us.us ]
  %11 = getelementptr inbounds [3 x float], ptr %4, i64 %indvars.iv111, i64 %indvars.iv107
  %12 = load float, ptr %11, align 4
  %13 = getelementptr inbounds [3 x float], ptr %5, i64 %indvars.iv111, i64 %indvars.iv107
  %14 = load float, ptr %13, align 4
  %15 = fsub float %12, %14
  %16 = fmul float %15, %15
  %17 = tail call float @llvm.fmuladd.f32(float %9, float %16, float %.147.us.us.us)
  %18 = fadd float %12, %14
  %19 = fmul float %18, %18
  %20 = tail call float @llvm.fmuladd.f32(float %9, float %19, float %.13846.us.us.us)
  %indvars.iv.next108 = add nuw nsw i64 %indvars.iv107, 1
  %exitcond110.not = icmp eq i64 %indvars.iv.next108, 3
  br i1 %exitcond110.not, label %.split49.us.us.us, label %10, !llvm.loop !5

.split49.us.us.us:                                ; preds = %10
  %21 = fadd float %.04152.us.us, %9
  %indvars.iv.next112 = add nuw nsw i64 %indvars.iv111, 1
  %exitcond115.not = icmp eq i64 %indvars.iv.next112, %wide.trip.count114
  br i1 %exitcond115.not, label %._crit_edge, label %.split.us.us.us, !llvm.loop !7

.split.us.us:                                     ; preds = %.lr.ph.split.us, %.split49.us.us
  %indvars.iv102 = phi i64 [ %indvars.iv.next103, %.split49.us.us ], [ 0, %.lr.ph.split.us ]
  %.054.us = phi float [ %34, %.split49.us.us ], [ 0.000000e+00, %.lr.ph.split.us ]
  %.03753.us = phi float [ %37, %.split49.us.us ], [ 0.000000e+00, %.lr.ph.split.us ]
  %.04152.us = phi float [ %38, %.split49.us.us ], [ 0.000000e+00, %.lr.ph.split.us ]
  %22 = getelementptr inbounds i32, ptr %2, i64 %indvars.iv102
  %23 = load i32, ptr %22, align 4
  %24 = sext i32 %23 to i64
  %25 = getelementptr inbounds float, ptr %3, i64 %24
  %26 = load float, ptr %25, align 4
  br label %27

27:                                               ; preds = %27, %.split.us.us
  %indvars.iv98 = phi i64 [ %indvars.iv.next99, %27 ], [ 0, %.split.us.us ]
  %.147.us.us = phi float [ %34, %27 ], [ %.054.us, %.split.us.us ]
  %.13846.us.us = phi float [ %37, %27 ], [ %.03753.us, %.split.us.us ]
  %28 = getelementptr inbounds [3 x float], ptr %4, i64 %24, i64 %indvars.iv98
  %29 = load float, ptr %28, align 4
  %30 = getelementptr inbounds [3 x float], ptr %5, i64 %24, i64 %indvars.iv98
  %31 = load float, ptr %30, align 4
  %32 = fsub float %29, %31
  %33 = fmul float %32, %32
  %34 = tail call float @llvm.fmuladd.f32(float %26, float %33, float %.147.us.us)
  %35 = fadd float %29, %31
  %36 = fmul float %35, %35
  %37 = tail call float @llvm.fmuladd.f32(float %26, float %36, float %.13846.us.us)
  %indvars.iv.next99 = add nuw nsw i64 %indvars.iv98, 1
  %exitcond101.not = icmp eq i64 %indvars.iv.next99, 3
  br i1 %exitcond101.not, label %.split49.us.us, label %27, !llvm.loop !5

.split49.us.us:                                   ; preds = %27
  %38 = fadd float %.04152.us, %26
  %indvars.iv.next103 = add nuw nsw i64 %indvars.iv102, 1
  %exitcond106.not = icmp eq i64 %indvars.iv.next103, %wide.trip.count114
  br i1 %exitcond106.not, label %._crit_edge, label %.split.us.us, !llvm.loop !7

.lr.ph.split:                                     ; preds = %.lr.ph
  br i1 %.not, label %.split.us, label %.split

.split.us:                                        ; preds = %.lr.ph.split, %.split49.us
  %indvars.iv93 = phi i64 [ %indvars.iv.next94, %.split49.us ], [ 0, %.lr.ph.split ]
  %.054.us60 = phi float [ %49, %.split49.us ], [ 0.000000e+00, %.lr.ph.split ]
  %.04152.us61 = phi float [ %41, %.split49.us ], [ 0.000000e+00, %.lr.ph.split ]
  %39 = getelementptr inbounds float, ptr %3, i64 %indvars.iv93
  %40 = load float, ptr %39, align 4
  br label %42

.split49.us:                                      ; preds = %42
  %41 = fadd float %.04152.us61, %40
  %indvars.iv.next94 = add nuw nsw i64 %indvars.iv93, 1
  %exitcond97.not = icmp eq i64 %indvars.iv.next94, %wide.trip.count114
  br i1 %exitcond97.not, label %._crit_edge, label %.split.us, !llvm.loop !7

42:                                               ; preds = %42, %.split.us
  %indvars.iv89 = phi i64 [ %indvars.iv.next90, %42 ], [ 0, %.split.us ]
  %.147.us = phi float [ %49, %42 ], [ %.054.us60, %.split.us ]
  %43 = getelementptr inbounds [3 x float], ptr %4, i64 %indvars.iv93, i64 %indvars.iv89
  %44 = load float, ptr %43, align 4
  %45 = getelementptr inbounds [3 x float], ptr %5, i64 %indvars.iv93, i64 %indvars.iv89
  %46 = load float, ptr %45, align 4
  %47 = fsub float %44, %46
  %48 = fmul float %47, %47
  %49 = tail call float @llvm.fmuladd.f32(float %40, float %48, float %.147.us)
  %indvars.iv.next90 = add nuw nsw i64 %indvars.iv89, 1
  %exitcond92.not = icmp eq i64 %indvars.iv.next90, 3
  br i1 %exitcond92.not, label %.split49.us, label %42, !llvm.loop !5

.split:                                           ; preds = %.lr.ph.split, %.split49
  %indvars.iv85 = phi i64 [ %indvars.iv.next86, %.split49 ], [ 0, %.lr.ph.split ]
  %.054 = phi float [ %62, %.split49 ], [ 0.000000e+00, %.lr.ph.split ]
  %.04152 = phi float [ %63, %.split49 ], [ 0.000000e+00, %.lr.ph.split ]
  %50 = getelementptr inbounds i32, ptr %2, i64 %indvars.iv85
  %51 = load i32, ptr %50, align 4
  %52 = sext i32 %51 to i64
  %53 = getelementptr inbounds float, ptr %3, i64 %52
  %54 = load float, ptr %53, align 4
  br label %55

55:                                               ; preds = %.split, %55
  %indvars.iv = phi i64 [ 0, %.split ], [ %indvars.iv.next, %55 ]
  %.147 = phi float [ %.054, %.split ], [ %62, %55 ]
  %56 = getelementptr inbounds [3 x float], ptr %4, i64 %52, i64 %indvars.iv
  %57 = load float, ptr %56, align 4
  %58 = getelementptr inbounds [3 x float], ptr %5, i64 %52, i64 %indvars.iv
  %59 = load float, ptr %58, align 4
  %60 = fsub float %57, %59
  %61 = fmul float %60, %60
  %62 = tail call float @llvm.fmuladd.f32(float %54, float %61, float %.147)
  %indvars.iv.next = add nuw nsw i64 %indvars.iv, 1
  %exitcond.not = icmp eq i64 %indvars.iv.next, 3
  br i1 %exitcond.not, label %.split49, label %55, !llvm.loop !5

.split49:                                         ; preds = %55
  %63 = fadd float %.04152, %54
  %indvars.iv.next86 = add nuw nsw i64 %indvars.iv85, 1
  %exitcond88.not = icmp eq i64 %indvars.iv.next86, %wide.trip.count114
  br i1 %exitcond88.not, label %._crit_edge, label %.split, !llvm.loop !7

._crit_edge:                                      ; preds = %.split49, %.split49.us, %.split49.us.us, %.split49.us.us.us, %6
  %.041.lcssa = phi float [ 0.000000e+00, %6 ], [ %21, %.split49.us.us.us ], [ %38, %.split49.us.us ], [ %41, %.split49.us ], [ %63, %.split49 ]
  %.037.lcssa = phi float [ 0.000000e+00, %6 ], [ %20, %.split49.us.us.us ], [ %37, %.split49.us.us ], [ 0.000000e+00, %.split49.us ], [ 0.000000e+00, %.split49 ]
  %.0.lcssa = phi float [ 0.000000e+00, %6 ], [ %17, %.split49.us.us.us ], [ %34, %.split49.us.us ], [ %49, %.split49.us ], [ %62, %.split49 ]
  br i1 %0, label %64, label %68

64:                                               ; preds = %._crit_edge
  %65 = fdiv float %.0.lcssa, %.037.lcssa
  %66 = tail call noundef float @sqrtf(float noundef %65) #15
  %67 = fmul float %66, 2.000000e+00
  br label %71

68:                                               ; preds = %._crit_edge
  %69 = fdiv float %.0.lcssa, %.041.lcssa
  %70 = tail call noundef float @sqrtf(float noundef %69) #15
  br label %71

71:                                               ; preds = %68, %64
  %.039 = phi float [ %67, %64 ], [ %70, %68 ]
  ret float %.039
}